target datalayout = "e-m:e-p270:32:32-p271:32:32-p272:64:64-i64:64-i128:128-f80:128-n8:16:32:64-S128"
target triple = "x86_64-pc-linux-gnu"

%class.btVector3 = type { [4 x float] }
%class.btReducedDeformableBody = type { %class.btSoftBody, i8, i8, float, float, [4 x i8], %class.btAlignedObjectArray.54, %class.btAlignedObjectArray.54, %class.btAlignedObjectArray.6, %class.btAlignedObjectArray.6, %class.btAlignedObjectArray.4, %class.btVector3, %class.btVector3, %class.btAlignedObjectArray.6, %class.btVector3, %class.btVector3, %class.btVector3, float, float, %class.btVector3, %class.btVector3, float, float, %class.btVector3, %class.btVector3, %class.btMatrix3x3, %class.btTransform, %class.btMatrix3x3, %class.btMatrix3x3, %class.btMatrix3x3, %class.btVector3, float, float, i32, i32, %class.btAlignedObjectArray.54, %class.btAlignedObjectArray.6, %class.btAlignedObjectArray.6, %class.btAlignedObjectArray.6, %class.btAlignedObjectArray.6, %class.btAlignedObjectArray.6, %class.btAlignedObjectArray.6, %class.btAlignedObjectArray.6, %class.btAlignedObjectArray.6, %class.btAlignedObjectArray.6, %class.btAlignedObjectArray.4, %class.btAlignedObjectArray.6, %class.btAlignedObjectArray.52, i32, [4 x i8], %class.btAlignedObjectArray.52 }
%class.btSoftBody = type { %class.btCollisionObject.base, [4 x i8], %class.btAlignedObjectArray, ptr, %"struct.btSoftBody::Config", %"struct.btSoftBody::SolverState", [4 x i8], %"struct.btSoftBody::Pose", ptr, ptr, %class.btAlignedObjectArray.8, %class.btAlignedObjectArray.10, %class.btAlignedObjectArray.12, %class.btAlignedObjectArray.14, %class.btAlignedObjectArray.16, %class.btAlignedObjectArray.18, %class.btAlignedObjectArray.20, %class.btAlignedObjectArray.22, %class.btAlignedObjectArray.22, %class.btAlignedObjectArray.24, %class.btAlignedObjectArray.26, %class.btAlignedObjectArray.28, %class.btAlignedObjectArray.30, %class.btAlignedObjectArray.32, %class.btAlignedObjectArray.34, %class.btAlignedObjectArray.32, %class.btAlignedObjectArray.36, %class.btAlignedObjectArray.38, %class.btAlignedObjectArray.40, float, [2 x %class.btVector3], i8, %struct.btDbvt, %struct.btDbvt, ptr, %struct.btDbvt, %class.btAlignedObjectArray.44, float, float, float, [4 x i8], %class.btAlignedObjectArray.4, float, float, i8, [7 x i8], %class.btAlignedObjectArray.4, %class.btAlignedObjectArray.46, %class.btAlignedObjectArray.48, %class.btAlignedObjectArray.6, i8, i8, [6 x i8], %class.btAlignedObjectArray.50, %class.btVector3, float, i8, [3 x i8], %class.btAlignedObjectArray.52 }
%class.btCollisionObject.base = type <{ ptr, %class.btTransform, %class.btTransform, %class.btVector3, %class.btVector3, %class.btVector3, i32, float, ptr, ptr, ptr, ptr, i32, i32, i32, i32, i32, float, float, float, float, float, float, float, i32, [4 x i8], ptr, i32, i32, i32, float, float, float, i32, [4 x i8], %class.btAlignedObjectArray, i32, %class.btVector3 }>
%class.btAlignedObjectArray = type <{ [4 x i8], i32, i32, [4 x i8], ptr, i8, [7 x i8] }>
%"struct.btSoftBody::Config" = type { i32, float, float, float, float, float, float, float, float, float, float, float, float, float, float, float, float, float, float, float, float, i32, i32, i32, i32, i32, %class.btAlignedObjectArray.0, %class.btAlignedObjectArray.2, %class.btAlignedObjectArray.2, float, float }
%class.btAlignedObjectArray.0 = type <{ [4 x i8], i32, i32, [4 x i8], ptr, i8, [7 x i8] }>
%class.btAlignedObjectArray.2 = type <{ [4 x i8], i32, i32, [4 x i8], ptr, i8, [7 x i8] }>
%"struct.btSoftBody::SolverState" = type { float, float, float, float, float }
%"struct.btSoftBody::Pose" = type { i8, i8, float, %class.btAlignedObjectArray.4, %class.btAlignedObjectArray.6, %class.btVector3, %class.btMatrix3x3, %class.btMatrix3x3, %class.btMatrix3x3 }
%class.btAlignedObjectArray.8 = type <{ [4 x i8], i32, i32, [4 x i8], ptr, i8, [7 x i8] }>
%class.btAlignedObjectArray.10 = type <{ [4 x i8], i32, i32, [4 x i8], ptr, i8, [7 x i8] }>
%class.btAlignedObjectArray.12 = type <{ [4 x i8], i32, i32, [4 x i8], ptr, i8, [7 x i8] }>
%class.btAlignedObjectArray.14 = type <{ [4 x i8], i32, i32, [4 x i8], ptr, i8, [7 x i8] }>
%class.btAlignedObjectArray.16 = type <{ [4 x i8], i32, i32, [4 x i8], ptr, i8, [7 x i8] }>
%class.btAlignedObjectArray.18 = type <{ [4 x i8], i32, i32, [4 x i8], ptr, i8, [7 x i8] }>
%class.btAlignedObjectArray.20 = type <{ [4 x i8], i32, i32, [4 x i8], ptr, i8, [7 x i8] }>
%class.btAlignedObjectArray.22 = type <{ [4 x i8], i32, i32, [4 x i8], ptr, i8, [7 x i8] }>
%class.btAlignedObjectArray.24 = type <{ [4 x i8], i32, i32, [4 x i8], ptr, i8, [7 x i8] }>
%class.btAlignedObjectArray.26 = type <{ [4 x i8], i32, i32, [4 x i8], ptr, i8, [7 x i8] }>
%class.btAlignedObjectArray.28 = type <{ [4 x i8], i32, i32, [4 x i8], ptr, i8, [7 x i8] }>
%class.btAlignedObjectArray.30 = type <{ [4 x i8], i32, i32, [4 x i8], ptr, i8, [7 x i8] }>
%class.btAlignedObjectArray.34 = type <{ [4 x i8], i32, i32, [4 x i8], ptr, i8, [7 x i8] }>
%class.btAlignedObjectArray.32 = type <{ [4 x i8], i32, i32, [4 x i8], ptr, i8, [7 x i8] }>
%class.btAlignedObjectArray.36 = type <{ [4 x i8], i32, i32, [4 x i8], ptr, i8, [7 x i8] }>
%class.btAlignedObjectArray.38 = type <{ [4 x i8], i32, i32, [4 x i8], ptr, i8, [7 x i8] }>
%class.btAlignedObjectArray.40 = type <{ [4 x i8], i32, i32, [4 x i8], ptr, i8, [7 x i8] }>
%struct.btDbvt = type { ptr, ptr, i32, i32, i32, [4 x i8], %class.btAlignedObjectArray.42 }
%class.btAlignedObjectArray.42 = type <{ [4 x i8], i32, i32, [4 x i8], ptr, i8, [7 x i8] }>
%class.btAlignedObjectArray.44 = type <{ [4 x i8], i32, i32, [4 x i8], ptr, i8, [7 x i8] }>
%class.btAlignedObjectArray.46 = type <{ [4 x i8], i32, i32, [4 x i8], ptr, i8, [7 x i8] }>
%class.btAlignedObjectArray.48 = type <{ [4 x i8], i32, i32, [4 x i8], ptr, i8, [7 x i8] }>
%class.btAlignedObjectArray.50 = type <{ [4 x i8], i32, i32, [4 x i8], ptr, i8, [7 x i8] }>
%class.btTransform = type { %class.btMatrix3x3, %class.btVector3 }
%class.btMatrix3x3 = type { [3 x %class.btVector3] }
%class.btAlignedObjectArray.54 = type <{ [4 x i8], i32, i32, [4 x i8], ptr, i8, [7 x i8] }>
%class.btAlignedObjectArray.4 = type <{ [4 x i8], i32, i32, [4 x i8], ptr, i8, [7 x i8] }>
%class.btAlignedObjectArray.6 = type <{ [4 x i8], i32, i32, [4 x i8], ptr, i8, [7 x i8] }>
%class.btAlignedObjectArray.52 = type <{ [4 x i8], i32, i32, [4 x i8], ptr, i8, [7 x i8] }>

; Function Attrs: inlinehint mustprogress nounwind uwtable
define linkonce_odr dso_local noundef nonnull align 4 dereferenceable(4) ptr @_ZN20btAlignedObjectArrayIfEixEi(ptr noundef nonnull align 8 dereferenceable(25) %0, i32 noundef %1) #3 comdat align 2 {
  %3 = alloca ptr, align 8
  %4 = alloca i32, align 4
  store ptr %0, ptr %3, align 8, !tbaa !140
  store i32 %1, ptr %4, align 4, !tbaa !9
  %5 = load ptr, ptr %3, align 8
  %6 = getelementptr inbounds nuw %class.btAlignedObjectArray.6, ptr %5, i32 0, i32 4
  %7 = load ptr, ptr %6, align 8, !tbaa !151
  %8 = load i32, ptr %4, align 4, !tbaa !9
  %9 = sext i32 %8 to i64
  %10 = getelementptr inbounds float, ptr %7, i64 %9
  ret ptr %10
}

; Function Attrs: mustprogress uwtable
define dso_local void @_ZN23btReducedDeformableBody20endOfTimeStepZeroingEv(ptr noundef nonnull align 8 dereferenceable(3176) %0) #7 align 2 {
  %2 = alloca ptr, align 8
  %3 = alloca i32, align 4
  store ptr %0, ptr %2, align 8, !tbaa !18
  %4 = load ptr, ptr %2, align 8
  call void @llvm.lifetime.start.p0(i64 4, ptr %3) #6
  store i32 0, ptr %3, align 4, !tbaa !9
  br label %5

5:                                                ; preds = %38, %1
  %6 = load i32, ptr %3, align 4, !tbaa !9
  %7 = getelementptr inbounds nuw %class.btReducedDeformableBody, ptr %4, i32 0, i32 33
  %8 = load i32, ptr %7, align 8, !tbaa !126
  %9 = icmp slt i32 %6, %8
  br i1 %9, label %11, label %10

10:                                               ; preds = %5
  call void @llvm.lifetime.end.p0(i64 4, ptr %3) #6
  br label %41

11:                                               ; preds = %5
  %12 = getelementptr inbounds nuw %class.btReducedDeformableBody, ptr %4, i32 0, i32 41
  %13 = load i32, ptr %3, align 4, !tbaa !9
  %14 = call noundef nonnull align 4 dereferenceable(4) ptr @_ZN20btAlignedObjectArrayIfEixEi(ptr noundef nonnull align 8 dereferenceable(25) %12, i32 noundef %13)
  store float 0.000000e+00, ptr %14, align 4, !tbaa !12
  %15 = getelementptr inbounds nuw %class.btReducedDeformableBody, ptr %4, i32 0, i32 42
  %16 = load i32, ptr %3, align 4, !tbaa !9
  %17 = call noundef nonnull align 4 dereferenceable(4) ptr @_ZN20btAlignedObjectArrayIfEixEi(ptr noundef nonnull align 8 dereferenceable(25) %15, i32 noundef %16)
  store float 0.000000e+00, ptr %17, align 4, !tbaa !12
  %18 = getelementptr inbounds nuw %class.btReducedDeformableBody, ptr %4, i32 0, i32 40
  %19 = load i32, ptr %3, align 4, !tbaa !9
  %20 = call noundef nonnull align 4 dereferenceable(4) ptr @_ZN20btAlignedObjectArrayIfEixEi(ptr noundef nonnull align 8 dereferenceable(25) %18, i32 noundef %19)
  store float 0.000000e+00, ptr %20, align 4, !tbaa !12
  %21 = getelementptr inbounds nuw %class.btReducedDeformableBody, ptr %4, i32 0, i32 13
  %22 = load i32, ptr %3, align 4, !tbaa !9
  %23 = call noundef nonnull align 4 dereferenceable(4) ptr @_ZN20btAlignedObjectArrayIfEixEi(ptr noundef nonnull align 8 dereferenceable(25) %21, i32 noundef %22)
  store float 0.000000e+00, ptr %23, align 4, !tbaa !12
  %24 = getelementptr inbounds nuw %class.btReducedDeformableBody, ptr %4, i32 0, i32 36
  %25 = load i32, ptr %3, align 4, !tbaa !9
  %26 = call noundef nonnull align 4 dereferenceable(4) ptr @_ZN20btAlignedObjectArrayIfEixEi(ptr noundef nonnull align 8 dereferenceable(25) %24, i32 noundef %25)
  %27 = load float, ptr %26, align 4, !tbaa !12
  %28 = getelementptr inbounds nuw %class.btReducedDeformableBody, ptr %4, i32 0, i32 37
  %29 = load i32, ptr %3, align 4, !tbaa !9
  %30 = call noundef nonnull align 4 dereferenceable(4) ptr @_ZN20btAlignedObjectArrayIfEixEi(ptr noundef nonnull align 8 dereferenceable(25) %28, i32 noundef %29)
  store float %27, ptr %30, align 4, !tbaa !12
  %31 = getelementptr inbounds nuw %class.btReducedDeformableBody, ptr %4, i32 0, i32 38
  %32 = load i32, ptr %3, align 4, !tbaa !9
  %33 = call noundef nonnull align 4 dereferenceable(4) ptr @_ZN20btAlignedObjectArrayIfEixEi(ptr noundef nonnull align 8 dereferenceable(25) %31, i32 noundef %32)
  %34 = load float, ptr %33, align 4, !tbaa !12
  %35 = getelementptr inbounds nuw %class.btReducedDeformableBody, ptr %4, i32 0, i32 39
  %36 = load i32, ptr %3, align 4, !tbaa !9
  %37 = call noundef nonnull align 4 dereferenceable(4) ptr @_ZN20btAlignedObjectArrayIfEixEi(ptr noundef nonnull align 8 dereferenceable(25) %35, i32 noundef %36)
  store float %34, ptr %37, align 4, !tbaa !12
  br label %38

38:                                               ; preds = %11
  %39 = load i32, ptr %3, align 4, !tbaa !9
  %40 = add nsw i32 %39, 1
  store i32 %40, ptr %3, align 4, !tbaa !9
  br label %5, !llvm.loop !172

41:                                               ; preds = %10
  ret void
}