; Function Attrs: mustprogress nofree norecurse nosync nounwind memory(readwrite, inaccessiblemem: none) uwtable
define dso_local void @_ZN23btReducedDeformableBody20endOfTimeStepZeroingEv(ptr noundef nonnull readonly align 8 captures(none) dereferenceable(3176) %0) local_unnamed_addr #13 align 2 {
  %2 = getelementptr inbounds nuw i8, ptr %0, i64 2712
  %3 = load i32, ptr %2, align 8, !tbaa !132
  %4 = icmp sgt i32 %3, 0
  br i1 %4, label %.lr.ph, label %._crit_edge

.lr.ph:                                           ; preds = %1
  %5 = getelementptr inbounds nuw i8, ptr %0, i64 2928
  %6 = load ptr, ptr %5, align 8, !tbaa !120
  %7 = getelementptr inbounds nuw i8, ptr %0, i64 2960
  %8 = load ptr, ptr %7, align 8, !tbaa !120
  %9 = getelementptr inbounds nuw i8, ptr %0, i64 2896
  %10 = load ptr, ptr %9, align 8, !tbaa !120
  %11 = getelementptr inbounds nuw i8, ptr %0, i64 2288
  %12 = load ptr, ptr %11, align 8, !tbaa !120
  %13 = getelementptr inbounds nuw i8, ptr %0, i64 2768
  %14 = load ptr, ptr %13, align 8, !tbaa !120
  %15 = getelementptr inbounds nuw i8, ptr %0, i64 2800
  %16 = load ptr, ptr %15, align 8, !tbaa !120
  %17 = getelementptr inbounds nuw i8, ptr %0, i64 2832
  %18 = load ptr, ptr %17, align 8, !tbaa !120
  %19 = getelementptr inbounds nuw i8, ptr %0, i64 2864
  %20 = load ptr, ptr %19, align 8, !tbaa !120
  %wide.trip.count = zext nneg i32 %3 to i64
  br label %21

._crit_edge:                                      ; preds = %21, %1
  ret void

21:                                               ; preds = %.lr.ph, %21
  %indvars.iv = phi i64 [ 0, %.lr.ph ], [ %indvars.iv.next, %21 ]
  %22 = getelementptr inbounds nuw float, ptr %6, i64 %indvars.iv
  store float 0.000000e+00, ptr %22, align 4, !tbaa !138
  %23 = getelementptr inbounds nuw float, ptr %8, i64 %indvars.iv
  store float 0.000000e+00, ptr %23, align 4, !tbaa !138
  %24 = getelementptr inbounds nuw float, ptr %10, i64 %indvars.iv
  store float 0.000000e+00, ptr %24, align 4, !tbaa !138
  %25 = getelementptr inbounds nuw float, ptr %12, i64 %indvars.iv
  store float 0.000000e+00, ptr %25, align 4, !tbaa !138
  %26 = getelementptr inbounds nuw float, ptr %14, i64 %indvars.iv
  %27 = load float, ptr %26, align 4, !tbaa !138
  %28 = getelementptr inbounds nuw float, ptr %16, i64 %indvars.iv
  store float %27, ptr %28, align 4, !tbaa !138
  %29 = getelementptr inbounds nuw float, ptr %18, i64 %indvars.iv
  %30 = load float, ptr %29, align 4, !tbaa !138
  %31 = getelementptr inbounds nuw float, ptr %20, i64 %indvars.iv
  store float %30, ptr %31, align 4, !tbaa !138
  %indvars.iv.next = add nuw nsw i64 %indvars.iv, 1
  %exitcond.not = icmp eq i64 %indvars.iv.next, %wide.trip.count
  br i1 %exitcond.not, label %._crit_edge, label %21, !llvm.loop !171
}